target datalayout = "e-m:e-p270:32:32-p271:32:32-p272:64:64-i64:64-i128:128-f80:128-n8:16:32:64-S128"
target triple = "x86_64-pc-linux-gnu"

; Function Attrs: alwaysinline nounwind
define internal ptr @memcpy.inline(ptr noalias %0, ptr noalias %1, i64 %2) #8 {
  %4 = alloca ptr, align 8
  %5 = alloca ptr, align 8
  %6 = alloca i64, align 8
  store ptr %0, ptr %4, align 8
  store ptr %1, ptr %5, align 8
  store i64 %2, ptr %6, align 8
  %7 = load ptr, ptr %4, align 8
  %8 = load ptr, ptr %5, align 8
  %9 = load i64, ptr %6, align 8
  %10 = load ptr, ptr %4, align 8
  %11 = call i64 @llvm.objectsize.i64.p0(ptr %10, i1 false, i1 true, i1 true)
  %12 = call ptr @__memcpy_chk(ptr noundef %7, ptr noundef %8, i64 noundef %9, i64 noundef %11) #16
  ret ptr %12
}

; Function Attrs: nounwind null_pointer_is_valid sspstrong uwtable
define internal i32 @isakmp_hash_func(ptr noundef %0) #11 {
  %2 = alloca ptr, align 8
  %3 = alloca ptr, align 8
  %4 = alloca i32, align 4
  %5 = alloca i32, align 4
  %6 = alloca i32, align 4
  store ptr %0, ptr %2, align 8
  call void @llvm.lifetime.start.p0(i64 8, ptr %3) #16
  %7 = load ptr, ptr %2, align 8
  store ptr %7, ptr %3, align 8
  call void @llvm.lifetime.start.p0(i64 4, ptr %4) #16
  store i32 0, ptr %4, align 4
  call void @llvm.lifetime.start.p0(i64 4, ptr %5) #16
  call void @llvm.lifetime.start.p0(i64 4, ptr %6) #16
  store i32 0, ptr %6, align 4
  br label %8

8:                                                ; preds = %20, %1
  %9 = load i32, ptr %6, align 4
  %10 = icmp ult i32 %9, 8
  br i1 %10, label %11, label %23

11:                                               ; preds = %8
  %12 = load ptr, ptr %3, align 8
  %13 = load i32, ptr %6, align 4
  %14 = zext i32 %13 to i64
  %15 = getelementptr i8, ptr %12, i64 %14
  %16 = call ptr @memcpy.inline(ptr noundef %5, ptr noundef %15, i64 noundef 4) #16
  %17 = load i32, ptr %5, align 4
  %18 = load i32, ptr %4, align 4
  %19 = xor i32 %18, %17
  store i32 %19, ptr %4, align 4
  br label %20

20:                                               ; preds = %11
  %21 = load i32, ptr %6, align 4
  %22 = add i32 %21, 4
  store i32 %22, ptr %6, align 4
  br label %8, !llvm.loop !47

23:                                               ; preds = %8
  %24 = load i32, ptr %4, align 4
  call void @llvm.lifetime.end.p0(i64 4, ptr %6) #16
  call void @llvm.lifetime.end.p0(i64 4, ptr %5) #16
  call void @llvm.lifetime.end.p0(i64 4, ptr %4) #16
  call void @llvm.lifetime.end.p0(i64 8, ptr %3) #16
  ret i32 %24
}