; Function Attrs: nofree norecurse nosync nounwind null_pointer_is_valid sspstrong memory(argmem: read) uwtable
define internal i32 @isakmp_hash_func(ptr noundef readonly captures(none) %0) #9 {
  br label %2

2:                                                ; preds = %1, %2
  %3 = phi i1 [ true, %1 ], [ false, %2 ]
  %indvars.iv = phi i64 [ 0, %1 ], [ 4, %2 ]
  %.067 = phi i32 [ 0, %1 ], [ %6, %2 ]
  %4 = getelementptr i8, ptr %0, i64 %indvars.iv
  %5 = load i32, ptr %4, align 1
  %6 = xor i32 %5, %.067
  br i1 %3, label %2, label %7, !llvm.loop !59

7:                                                ; preds = %2
  ret i32 %6
}